(dp0
(istudent
School
p1
(dp2
S'capacity'
p3
I53
sS'name'
p4
S'Sutro'
p5
sbg1
s(istudent
School
p6
(dp7
g3
I26
sg4
S'Visitacion ValleyCHN'
p8
sbg6
s(istudent
School
p9
(dp10
g3
I53
sg4
S'Taylor'
p11
sbg9
s(istudent
School
p12
(dp13
g3
I79
sg4
S'Rooftop'
p14
sbg12
s(istudent
School
p15
(dp16
g3
I26
sg4
S'Sanchez'
p17
sbg15
s(istudent
School
p18
(dp19
g3
I26
sg4
S'TaylorCHN'
p20
sbg18
s(istudent
School
p21
(dp22
g3
I53
sg4
S'TaylorSPN'
p23
sbg21
s(istudent
School
p24
(dp25
g3
I26
sg4
S'SanchezSPN'
p26
sbg24
s(istudent
School
p27
(dp28
g3
I77
sg4
S'Sunnyside'
p29
sbg27
s(istudent
School
p30
(dp31
g3
I26
sg4
S'Serra'
p32
sbg30
s(istudent
School
p33
(dp34
g3
I79
sg4
S'Tenderloin'
p35
sbg33
s(istudent
School
p36
(dp37
g3
I53
sg4
S'Ulloa'
p38
sbg36
s(istudent
School
p39
(dp40
g3
I106
sg4
S'FairmountIMMS'
p41
sbg39
s(istudent
School
p42
(dp43
g3
I53
sg4
S'SF Community'
p44
sbg42
s(istudent
School
p45
(dp46
g3
I53
sg4
S'UlloaCHN'
p47
sbg45
s(istudent
School
p48
(dp49
g3
I53
sg4
S'Starr King'
p50
sbg48
s(istudent
School
p51
(dp52
g3
I53
sg4
S'AlvaradoIMMS'
p53
sbg51
s(istudent
School
p54
(dp55
g3
I106
sg4
S'Alamo'
p56
sbg54
s(istudent
School
p57
(dp58
g3
I53
sg4
S'Alvarado'
p59
sbg57
s(istudent
School
p60
(dp61
g3
I106
sg4
S'Argonne'
p62
sbg60
s(istudent
School
p63
(dp64
g3
I53
sg4
S'Visitacion Valley'
p65
sbg63
s(istudent
School
p66
(dp67
g3
I53
sg4
S'Sheridan'
p68
sbg66
s(istudent
School
p69
(dp70
g3
I79
sg4
S'Bryant'
p71
sbg69
s(istudent
School
p72
(dp73
g3
I53
sg4
S'BryantSPN'
p74
sbg72
s(istudent
School
p75
(dp76
g3
I79
sg4
S'Buena Vista/MannIMMS'
p77
sbg75
s(istudent
School
p78
(dp79
g3
I53
sg4
S'Carmichael'
p80
sbg78
s(istudent
School
p81
(dp82
g3
I26
sg4
S'CarmichaelFIL'
p83
sbg81
s(istudent
School
p84
(dp85
g3
I106
sg4
S'Carver'
p86
sbg84
s(istudent
School
p87
(dp88
g3
I79
sg4
S'Sherman'
p89
sbg87
s(istudent
School
p90
(dp91
g3
I106
sg4
S'Chavez'
p92
sbg90
s(istudent
School
p93
(dp94
g3
I106
sg4
S'ChavezSPN'
p95
sbg93
s(istudent
School
p96
(dp97
g3
I26
sg4
S'Chin'
p98
sbg96
s(istudent
School
p99
(dp100
g3
I26
sg4
S'ChinCHN'
p101
sbg99
s(istudent
School
p102
(dp103
g3
I79
sg4
S'Chinese ImmersionIMMC'
p104
sbg102
s(istudent
School
p105
(dp106
g3
I53
sg4
S'Clarendon'
p107
sbg105
s(istudent
School
p108
(dp109
g3
I26
sg4
S'Webster'
p110
sbg108
s(istudent
School
p111
(dp112
g3
I79
sg4
S'Sloat'
p113
sbg111
s(istudent
School
p114
(dp115
g3
I53
sg4
S'ClarendonJPN'
p116
sbg114
s(istudent
School
p117
(dp118
g3
I106
sg4
S'Cleveland'
p119
sbg117
s(istudent
School
p120
(dp121
g3
I53
sg4
S'ClevelandSPN'
p122
sbg120
s(istudent
School
p123
(dp124
g3
I26
sg4
S'Cobb'
p125
sbg123
s(istudent
School
p126
(dp127
g3
I53
sg4
S'Drew'
p128
sbg126
s(istudent
School
p129
(dp130
g3
I26
sg4
S'GarfieldIMMC'
p131
sbg129
s(istudent
School
p132
(dp133
g3
I53
sg4
S'El Dorado'
p134
sbg132
s(istudent
School
p135
(dp136
g3
I26
sg4
S'WebsterIMMS'
p137
sbg135
s(istudent
School
p138
(dp139
g3
I26
sg4
S'SerraSPN'
p140
sbg138
s(istudent
School
p141
(dp142
g3
I106
sg4
S'Feinstein'
p143
sbg141
s(istudent
School
p144
(dp145
g3
I53
sg4
S'Flynn'
p146
sbg144
s(istudent
School
p147
(dp148
g3
I26
sg4
S'FlynnIMMS'
p149
sbg147
s(istudent
School
p150
(dp151
g3
I26
sg4
S'Garfield'
p152
sbg150
s(istudent
School
p153
(dp154
g3
I79
sg4
S'West Portal'
p155
sbg153
s(istudent
School
p156
(dp157
g3
I26
sg4
S'Spring Valley'
p158
sbg156
s(istudent
School
p159
(dp160
g3
I26
sg4
S'Spring ValleyCHN'
p161
sbg159
s(istudent
School
p162
(dp163
g3
I26
sg4
S'Glen ParkSPN'
p164
sbg162
s(istudent
School
p165
(dp166
g3
I79
sg4
S'Grattan'
p167
sbg165
s(istudent
School
p168
(dp169
g3
I53
sg4
S'Guadalupe'
p170
sbg168
s(istudent
School
p171
(dp172
g3
I26
sg4
S'GuadalupeSPN'
p173
sbg171
s(istudent
School
p174
(dp175
g3
I26
sg4
S'Spring ValleySPN'
p176
sbg174
s(istudent
School
p177
(dp178
g3
I53
sg4
S'Harte'
p179
sbg177
s(istudent
School
p180
(dp181
g3
I53
sg4
S'West PortalIMMC'
p182
sbg180
s(istudent
School
p183
(dp184
g3
I26
sg4
S'HarteIMMS'
p185
sbg183
s(istudent
School
p186
(dp187
g3
I53
sg4
S'Hillcrest'
p188
sbg186
s(istudent
School
p189
(dp190
g3
I26
sg4
S'HillcrestCHN'
p191
sbg189
s(istudent
School
p192
(dp193
g3
I26
sg4
S'HillcrestSPN'
p194
sbg192
s(istudent
School
p195
(dp196
g3
I53
sg4
S'Glen Park'
p197
sbg195
s(istudent
School
p198
(dp199
g3
I106
sg4
S'Jefferson'
p200
sbg198
s(istudent
School
p201
(dp202
g3
I53
sg4
S'Yick Wo'
p203
sbg201
s(istudent
School
p204
(dp205
g3
I106
sg4
S'Key'
p206
sbg204
s(istudent
School
p207
(dp208
g3
I106
sg4
S'Lafayette'
p209
sbg207
s(istudent
School
p210
(dp211
g3
I106
sg4
S'Lakeshore'
p212
sbg210
s(istudent
School
p213
(dp214
g3
I79
sg4
S'Lau'
p215
sbg213
s(istudent
School
p216
(dp217
g3
I53
sg4
S'LauCHN'
p218
sbg216
s(istudent
School
p219
(dp220
g3
I79
sg4
S'Lawton'
p221
sbg219
s(istudent
School
p222
(dp223
g3
I26
sg4
S'Starr KingIMMM'
p224
sbg222
s(istudent
School
p225
(dp226
g3
I53
sg4
S'Lilienthal'
p227
sbg225
s(istudent
School
p228
(dp229
g3
I79
sg4
S'YuIMMC'
p230
sbg228
s(istudent
School
p231
(dp232
g3
I53
sg4
S'LilienthalIMMK'
p233
sbg231
s(istudent
School
p234
(dp235
g3
I79
sg4
S'Longfellow'
p236
sbg234
s(istudent
School
p237
(dp238
g3
I26
sg4
S'LongfellowFIL'
p239
sbg237
s(istudent
School
p240
(dp241
g3
I106
sg4
S'Malcolm X'
p242
sbg240
s(istudent
School
p243
(dp244
g3
I53
sg4
S'MarshallIMMS'
p245
sbg243
s(istudent
School
p246
(dp247
g3
I53
sg4
S'McCoppin'
p248
sbg246
s(istudent
School
p249
(dp250
g3
I79
sg4
S'McKinley'
p251
sbg249
s(istudent
School
p252
(dp253
g3
I53
sg4
S'Milk'
p254
sbg252
s(istudent
School
p255
(dp256
g3
I79
sg4
S'Miraloma'
p257
sbg255
s(istudent
School
p258
(dp259
g3
I79
sg4
S'Monroe'
p260
sbg258
s(istudent
School
p261
(dp262
g3
I53
sg4
S'MonroeCHN'
p263
sbg261
s(istudent
School
p264
(dp265
g3
I53
sg4
S'StevensonCHN'
p266
sbg264
s(istudent
School
p267
(dp268
g3
I53
sg4
S'Montessori'
p269
sbg267
s(istudent
School
p270
(dp271
g3
I53
sg4
S'Stevenson'
p272
sbg270
s(istudent
School
p273
(dp274
g3
I26
sg4
S'Moscone'
p275
sbg273
s(istudent
School
p276
(dp277
g3
I26
sg4
S'MosconeCHN'
p278
sbg276
s(istudent
School
p279
(dp280
g3
I26
sg4
S'MosconeSPN'
p281
sbg279
s(istudent
School
p282
(dp283
g3
I79
sg4
S'Muir'
p284
sbg282
s(istudent
School
p285
(dp286
g3
I79
sg4
S'MuirSPN'
p287
sbg285
s(istudent
School
p288
(dp289
g3
I53
sg4
S'New Traditions'
p290
sbg288
s(istudent
School
p291
(dp292
g3
I53
sg4
S'Ortega'
p293
sbg291
s(istudent
School
p294
(dp295
g3
I26
sg4
S'OrtegaIMMM'
p296
sbg294
s(istudent
School
p297
(dp298
g3
I26
sg4
S'Parker'
p299
sbg297
s(istudent
School
p300
(dp301
g3
I26
sg4
S'ParkerCHN'
p302
sbg300
s(istudent
School
p303
(dp304
g3
I53
sg4
S'Parks'
p305
sbg303
s(istudent
School
p306
(dp307
g3
I106
sg4
S'Sunset'
p308
sbg306
s(istudent
School
p309
(dp310
g3
I53
sg4
S'ParksJPN'
p311
sbg309
s(istudent
School
p312
(dp313
g3
I26
sg4
S'Peabody'
p314
sbg312
s(istudent
School
p315
(dp316
g3
I53
sg4
S'Redding'
p317
sbg315
s(istudent
School
p318
(dp319
g3
I106
sg4
S'Revere'
p320
sbg318
s(istudent
School
p321
(dp322
g3
I106
sg4
S'RevereIMMS'
p323
sbg321
s.