(lp0
(istudent
School
p1
(dp2
S'capacity'
p3
I106
sS'name'
p4
S'Alamo'
p5
sba(istudent
School
p6
(dp7
g3
I53
sg4
S'Alvarado'
p8
sba(istudent
School
p9
(dp10
g3
I53
sg4
S'AlvaradoIMMS'
p11
sba(istudent
School
p12
(dp13
g3
I106
sg4
S'Argonne'
p14
sba(istudent
School
p15
(dp16
g3
I79
sg4
S'Bryant'
p17
sba(istudent
School
p18
(dp19
g3
I53
sg4
S'BryantSPN'
p20
sba(istudent
School
p21
(dp22
g3
I79
sg4
S'Buena Vista/MannIMMS'
p23
sba(istudent
School
p24
(dp25
g3
I53
sg4
S'Carmichael'
p26
sba(istudent
School
p27
(dp28
g3
I26
sg4
S'CarmichaelFIL'
p29
sba(istudent
School
p30
(dp31
g3
I106
sg4
S'Carver'
p32
sba(istudent
School
p33
(dp34
g3
I106
sg4
S'Chavez'
p35
sba(istudent
School
p36
(dp37
g3
I106
sg4
S'ChavezSPN'
p38
sba(istudent
School
p39
(dp40
g3
I26
sg4
S'Chin'
p41
sba(istudent
School
p42
(dp43
g3
I26
sg4
S'ChinCHN'
p44
sba(istudent
School
p45
(dp46
g3
I79
sg4
S'Chinese ImmersionIMMC'
p47
sba(istudent
School
p48
(dp49
g3
I53
sg4
S'Clarendon'
p50
sba(istudent
School
p51
(dp52
g3
I53
sg4
S'ClarendonJPN'
p53
sba(istudent
School
p54
(dp55
g3
I106
sg4
S'Cleveland'
p56
sba(istudent
School
p57
(dp58
g3
I53
sg4
S'ClevelandSPN'
p59
sba(istudent
School
p60
(dp61
g3
I26
sg4
S'Cobb'
p62
sba(istudent
School
p63
(dp64
g3
I53
sg4
S'Drew'
p65
sba(istudent
School
p66
(dp67
g3
I53
sg4
S'El Dorado'
p68
sba(istudent
School
p69
(dp70
g3
I106
sg4
S'FairmountIMMS'
p71
sba(istudent
School
p72
(dp73
g3
I106
sg4
S'Feinstein'
p74
sba(istudent
School
p75
(dp76
g3
I53
sg4
S'Flynn'
p77
sba(istudent
School
p78
(dp79
g3
I26
sg4
S'FlynnIMMS'
p80
sba(istudent
School
p81
(dp82
g3
I26
sg4
S'Garfield'
p83
sba(istudent
School
p84
(dp85
g3
I26
sg4
S'GarfieldIMMC'
p86
sba(istudent
School
p87
(dp88
g3
I53
sg4
S'Glen Park'
p89
sba(istudent
School
p90
(dp91
g3
I26
sg4
S'Glen ParkSPN'
p92
sba(istudent
School
p93
(dp94
g3
I79
sg4
S'Grattan'
p95
sba(istudent
School
p96
(dp97
g3
I53
sg4
S'Guadalupe'
p98
sba(istudent
School
p99
(dp100
g3
I26
sg4
S'GuadalupeSPN'
p101
sba(istudent
School
p102
(dp103
g3
I53
sg4
S'Harte'
p104
sba(istudent
School
p105
(dp106
g3
I26
sg4
S'HarteIMMS'
p107
sba(istudent
School
p108
(dp109
g3
I53
sg4
S'Hillcrest'
p110
sba(istudent
School
p111
(dp112
g3
I26
sg4
S'HillcrestCHN'
p113
sba(istudent
School
p114
(dp115
g3
I26
sg4
S'HillcrestSPN'
p116
sba(istudent
School
p117
(dp118
g3
I106
sg4
S'Jefferson'
p119
sba(istudent
School
p120
(dp121
g3
I106
sg4
S'Key'
p122
sba(istudent
School
p123
(dp124
g3
I106
sg4
S'Lafayette'
p125
sba(istudent
School
p126
(dp127
g3
I106
sg4
S'Lakeshore'
p128
sba(istudent
School
p129
(dp130
g3
I79
sg4
S'Lau'
p131
sba(istudent
School
p132
(dp133
g3
I53
sg4
S'LauCHN'
p134
sba(istudent
School
p135
(dp136
g3
I79
sg4
S'Lawton'
p137
sba(istudent
School
p138
(dp139
g3
I53
sg4
S'Lilienthal'
p140
sba(istudent
School
p141
(dp142
g3
I53
sg4
S'LilienthalIMMK'
p143
sba(istudent
School
p144
(dp145
g3
I79
sg4
S'Longfellow'
p146
sba(istudent
School
p147
(dp148
g3
I26
sg4
S'LongfellowFIL'
p149
sba(istudent
School
p150
(dp151
g3
I106
sg4
S'Malcolm X'
p152
sba(istudent
School
p153
(dp154
g3
I53
sg4
S'MarshallIMMS'
p155
sba(istudent
School
p156
(dp157
g3
I53
sg4
S'McCoppin'
p158
sba(istudent
School
p159
(dp160
g3
I79
sg4
S'McKinley'
p161
sba(istudent
School
p162
(dp163
g3
I53
sg4
S'Milk'
p164
sba(istudent
School
p165
(dp166
g3
I79
sg4
S'Miraloma'
p167
sba(istudent
School
p168
(dp169
g3
I79
sg4
S'Monroe'
p170
sba(istudent
School
p171
(dp172
g3
I53
sg4
S'MonroeCHN'
p173
sba(istudent
School
p174
(dp175
g3
I53
sg4
S'Montessori'
p176
sba(istudent
School
p177
(dp178
g3
I26
sg4
S'Moscone'
p179
sba(istudent
School
p180
(dp181
g3
I26
sg4
S'MosconeCHN'
p182
sba(istudent
School
p183
(dp184
g3
I26
sg4
S'MosconeSPN'
p185
sba(istudent
School
p186
(dp187
g3
I79
sg4
S'Muir'
p188
sba(istudent
School
p189
(dp190
g3
I79
sg4
S'MuirSPN'
p191
sba(istudent
School
p192
(dp193
g3
I53
sg4
S'New Traditions'
p194
sba(istudent
School
p195
(dp196
g3
I53
sg4
S'Ortega'
p197
sba(istudent
School
p198
(dp199
g3
I26
sg4
S'OrtegaIMMM'
p200
sba(istudent
School
p201
(dp202
g3
I26
sg4
S'Parker'
p203
sba(istudent
School
p204
(dp205
g3
I26
sg4
S'ParkerCHN'
p206
sba(istudent
School
p207
(dp208
g3
I53
sg4
S'Parks'
p209
sba(istudent
School
p210
(dp211
g3
I53
sg4
S'ParksJPN'
p212
sba(istudent
School
p213
(dp214
g3
I26
sg4
S'Peabody'
p215
sba(istudent
School
p216
(dp217
g3
I53
sg4
S'Redding'
p218
sba(istudent
School
p219
(dp220
g3
I106
sg4
S'Revere'
p221
sba(istudent
School
p222
(dp223
g3
I106
sg4
S'RevereIMMS'
p224
sba(istudent
School
p225
(dp226
g3
I79
sg4
S'Rooftop'
p227
sba(istudent
School
p228
(dp229
g3
I26
sg4
S'Sanchez'
p230
sba(istudent
School
p231
(dp232
g3
I26
sg4
S'SanchezSPN'
p233
sba(istudent
School
p234
(dp235
g3
I26
sg4
S'Serra'
p236
sba(istudent
School
p237
(dp238
g3
I26
sg4
S'SerraSPN'
p239
sba(istudent
School
p240
(dp241
g3
I53
sg4
S'SF Community'
p242
sba(istudent
School
p243
(dp244
g3
I53
sg4
S'Sheridan'
p245
sba(istudent
School
p246
(dp247
g3
I79
sg4
S'Sherman'
p248
sba(istudent
School
p249
(dp250
g3
I79
sg4
S'Sloat'
p251
sba(istudent
School
p252
(dp253
g3
I26
sg4
S'Spring Valley'
p254
sba(istudent
School
p255
(dp256
g3
I26
sg4
S'Spring ValleyCHN'
p257
sba(istudent
School
p258
(dp259
g3
I26
sg4
S'Spring ValleySPN'
p260
sba(istudent
School
p261
(dp262
g3
I53
sg4
S'Starr King'
p263
sba(istudent
School
p264
(dp265
g3
I26
sg4
S'Starr KingIMMM'
p266
sba(istudent
School
p267
(dp268
g3
I53
sg4
S'Stevenson'
p269
sba(istudent
School
p270
(dp271
g3
I53
sg4
S'StevensonCHN'
p272
sba(istudent
School
p273
(dp274
g3
I77
sg4
S'Sunnyside'
p275
sba(istudent
School
p276
(dp277
g3
I106
sg4
S'Sunset'
p278
sba(istudent
School
p279
(dp280
g3
I53
sg4
S'Sutro'
p281
sba(istudent
School
p282
(dp283
g3
I53
sg4
S'Taylor'
p284
sba(istudent
School
p285
(dp286
g3
I26
sg4
S'TaylorCHN'
p287
sba(istudent
School
p288
(dp289
g3
I53
sg4
S'TaylorSPN'
p290
sba(istudent
School
p291
(dp292
g3
I79
sg4
S'Tenderloin'
p293
sba(istudent
School
p294
(dp295
g3
I53
sg4
S'Ulloa'
p296
sba(istudent
School
p297
(dp298
g3
I53
sg4
S'UlloaCHN'
p299
sba(istudent
School
p300
(dp301
g3
I53
sg4
S'Visitacion Valley'
p302
sba(istudent
School
p303
(dp304
g3
I26
sg4
S'Visitacion ValleyCHN'
p305
sba(istudent
School
p306
(dp307
g3
I26
sg4
S'Webster'
p308
sba(istudent
School
p309
(dp310
g3
I26
sg4
S'WebsterIMMS'
p311
sba(istudent
School
p312
(dp313
g3
I79
sg4
S'West Portal'
p314
sba(istudent
School
p315
(dp316
g3
I53
sg4
S'West PortalIMMC'
p317
sba(istudent
School
p318
(dp319
g3
I53
sg4
S'Yick Wo'
p320
sba(istudent
School
p321
(dp322
g3
I79
sg4
S'YuIMMC'
p323
sba.