(dp0
S'Spring ValleyCHN'
p1
I2410
sS'West Portal'
p2
I41730
sS'Alvarado'
p3
I26330
sS'AlvaraoIMMS'
p4
I31280
sS'SanchezSPN'
p5
I3790
sS'Flynn'
p6
I4000
sS'Lakeshore'
p7
I10910
sS'ParkerCHN'
p8
I5720
sS'Yick Wo'
p9
I9200
sS'Drew'
p10
I3150
sS'HillcrestCHN'
p11
I2080
sS'MosconeSPN'
p12
I8690
sS'Visitacion Valley'
p13
I4500
sS'ParksJPN'
p14
I6830
sS'FairmountIMMS'
p15
I22230
sS'Ortega'
p16
I6940
sS'Alamo'
p17
I28680
sS'Spring ValleySPN'
p18
I2400
sS'Webster'
p19
I4200
sS'Redding'
p20
I7330
sS'Chinese ImmersionIMMC'
p21
I21100
sS'Parker'
p22
I6340
sS'MosconeCHN'
p23
I1730
sS'TaylorSPN'
p24
I3690
sS'Milk'
p25
I7810
sS'LilienthalIMMK'
p26
I9290
sS'Sloat'
p27
I24600
sS'Grattan'
p28
I64880
sS'CarmichaelFIL'
p29
I1060
sS'Sunnyside'
p30
I28220
sS'MuirSPN'
p31
I1850
sS'Miraloma'
p32
I36910
sS'Jefferson'
p33
I29040
sS'YuIMMC'
p34
I41950
sS'ChinCHN'
p35
I10010
sS'MonroeCHN'
p36
I5480
sS'New Traditions'
p37
I21230
sS'Glen ParkSPN'
p38
I3280
sS'OrtegaIMMM'
p39
I12880
sS'Sherman'
p40
I28730
sS'Clarendon'
p41
I76030
sS'Key'
p42
I19130
sS'McCoppin'
p43
I3470
sS'Bryant'
p44
I2860
sS'King'
p45
I1710
sS'SerraSPN'
p46
I7880
sS'Serra'
p47
I1970
sS'Revere'
p48
I1700
sS'RevereIMMS'
p49
I4610
sS'GarfieldIMMC'
p50
I3450
sS'Sanchez'
p51
I2990
sS'Taylor'
p52
I13000
sS'Peabody'
p53
I43440
sS'HarteIMMS'
p54
I1360
sS'Chin'
p55
I11860
sS'HillcrestSPN'
p56
I3300
sS'McKinley'
p57
I33490
sS'Buena Vista/MannIMMS'
p58
I25850
sS'StevensonCHN'
p59
I50
sS'Rooftop'
p60
I59510
sS'Glen Park'
p61
I12690
sS'Guadalupe'
p62
I4950
sS'Cobb'
p63
I1710
sS'FlynnIMMS'
p64
I10090
sS'ClarendonJPN'
p65
I30350
sS'Chavez'
p66
I3540
sS'BryantSPN'
p67
I5750
sS'WebsterIMMS'
p68
I9140
sS'Harte'
p69
I1950
sS'Feinstein'
p70
I25440
sS'KingIMMM'
p71
I7940
sS'MarshallIMMS'
p72
I11830
sS'Lilienthal'
p73
I44750
sS'Moscone'
p74
I4770
sS'GuadalupeSPN'
p75
I3880
sS'ClevelandSPN'
p76
I4110
sS'Stevenson'
p77
I21150
sS'UlloaCHN'
p78
I12400
sS'Carver'
p79
I1850
sS'Sunset'
p80
I43710
sS'Lawton'
p81
I47420
sS'SF Community'
p82
I6830
sS'LauCHN'
p83
I10180
sS'Montessori'
p84
I13580
sS'Malcolm X'
p85
I880
sS'Tenderloin'
p86
I5410
sS'El Dorado'
p87
I1800
sS'Cleveland'
p88
I4280
sS'LongfellowFIL'
p89
I850
sS'Spring Valley'
p90
I5540
sS'Argonne'
p91
I29840
sS'Parks'
p92
I6010
sS'Ulloa'
p93
I23640
sS'TaylorCHN'
p94
I9040
sS'ChavezSPN'
p95
I7150
sS'Sutro'
p96
I43710
sS'Visitacion ValleyCHN'
p97
I2240
sS'Lau'
p98
I8830
sS'Carmichael'
p99
I4110
sS'Sheridan'
p100
I2810
sS'West PortalIMMC'
p101
I26090
sS'Lafayette'
p102
I25620
sS'Longfellow'
p103
I5120
sS'Muir'
p104
I2270
sS'Garfield'
p105
I3470
sS'Hillcrest'
p106
I5810
sS'Monroe'
p107
I10430
s.